target datalayout = "e-m:e-p270:32:32-p271:32:32-p272:64:64-i64:64-i128:128-f80:128-n8:16:32:64-S128"
target triple = "x86_64-pc-linux-gnu"

%"class.colvarmodule::rvector" = type { double, double, double }
%class.colvarvalue = type { i32, double, %"class.colvarmodule::rvector", %"class.colvarmodule::quaternion", %"class.colvarmodule::vector1d", %"class.std::vector.10", %"class.std::vector.15", %"class.std::vector.15" }
%"class.colvarmodule::vector1d" = type { %"class.std::vector.5" }
%"class.std::vector.5" = type { %"struct.std::_Vector_base.6" }
%"struct.std::_Vector_base.6" = type { %"struct.std::_Vector_base<double, std::allocator<double>>::_Vector_impl" }
%"struct.std::_Vector_base<double, std::allocator<double>>::_Vector_impl" = type { %"struct.std::_Vector_base<double, std::allocator<double>>::_Vector_impl_data" }
%"struct.std::_Vector_base<double, std::allocator<double>>::_Vector_impl_data" = type { ptr, ptr, ptr }
%"class.std::vector.10" = type { %"struct.std::_Vector_base.11" }
%"struct.std::_Vector_base.11" = type { %"struct.std::_Vector_base<colvarvalue::Type, std::allocator<colvarvalue::Type>>::_Vector_impl" }
%"struct.std::_Vector_base<colvarvalue::Type, std::allocator<colvarvalue::Type>>::_Vector_impl" = type { %"struct.std::_Vector_base<colvarvalue::Type, std::allocator<colvarvalue::Type>>::_Vector_impl_data" }
%"struct.std::_Vector_base<colvarvalue::Type, std::allocator<colvarvalue::Type>>::_Vector_impl_data" = type { ptr, ptr, ptr }
%"class.std::vector.15" = type { %"struct.std::_Vector_base.16" }
%"struct.std::_Vector_base.16" = type { %"struct.std::_Vector_base<int, std::allocator<int>>::_Vector_impl" }
%"struct.std::_Vector_base<int, std::allocator<int>>::_Vector_impl" = type { %"struct.std::_Vector_base<int, std::allocator<int>>::_Vector_impl_data" }
%"struct.std::_Vector_base<int, std::allocator<int>>::_Vector_impl_data" = type { ptr, ptr, ptr }
%"class.colvarmodule::quaternion" = type { double, double, double, double }

; Function Attrs: mustprogress nounwind uwtable
define noundef double @_ZNK6colvar10spin_angle5dist2ERK11colvarvalueS3_(ptr noundef nonnull align 8 dereferenceable(2360) %0, ptr noundef nonnull align 8 dereferenceable(168) %1, ptr noundef nonnull align 8 dereferenceable(168) %2) unnamed_addr #1 align 2 {
  %4 = alloca ptr, align 8
  %5 = alloca ptr, align 8
  %6 = alloca ptr, align 8
  %7 = alloca double, align 8
  store ptr %0, ptr %4, align 8
  store ptr %1, ptr %5, align 8
  store ptr %2, ptr %6, align 8
  %8 = load ptr, ptr %5, align 8
  %9 = getelementptr inbounds %class.colvarvalue, ptr %8, i32 0, i32 1
  %10 = load double, ptr %9, align 8
  %11 = load ptr, ptr %6, align 8
  %12 = getelementptr inbounds %class.colvarvalue, ptr %11, i32 0, i32 1
  %13 = load double, ptr %12, align 8
  %14 = fsub double %10, %13
  store double %14, ptr %7, align 8
  %15 = load double, ptr %7, align 8
  %16 = fcmp olt double %15, -1.800000e+02
  br i1 %16, label %17, label %20

17:                                               ; preds = %3
  %18 = load double, ptr %7, align 8
  %19 = fadd double %18, 3.600000e+02
  br label %30

20:                                               ; preds = %3
  %21 = load double, ptr %7, align 8
  %22 = fcmp ogt double %21, 1.800000e+02
  br i1 %22, label %23, label %26

23:                                               ; preds = %20
  %24 = load double, ptr %7, align 8
  %25 = fsub double %24, 3.600000e+02
  br label %28

26:                                               ; preds = %20
  %27 = load double, ptr %7, align 8
  br label %28

28:                                               ; preds = %26, %23
  %29 = phi double [ %25, %23 ], [ %27, %26 ]
  br label %30

30:                                               ; preds = %28, %17
  %31 = phi double [ %19, %17 ], [ %29, %28 ]
  store double %31, ptr %7, align 8
  %32 = load double, ptr %7, align 8
  %33 = load double, ptr %7, align 8
  %34 = fmul double %32, %33
  ret double %34
}